Certificate:
    Data:
        Version: 1 (0x0)
        Serial Number:
            ff:df:78:c4:6a:0b:72:77
    Signature Algorithm: sha256WithRSAEncryption
        Issuer: C=AR, ST=Buenos Ayres, L=Buenos Ayres, O=ZFStor, CN=zfstor.org/emailAddress=zfstor@zfstor.org
        Validity
            Not Before: Nov 28 08:20:19 2016 GMT
            Not After : Nov 26 08:20:19 2026 GMT
        Subject: C=AR, ST=Buenos Ayres, L=Buenos Ayres, O=ZFStor, CN=update.zfstor.org/emailAddress=zfstor@zfstor.org
        Subject Public Key Info:
            Public Key Algorithm: rsaEncryption
                Public-Key: (2048 bit)
                Modulus:
                    00:df:a8:c9:23:f5:20:00:d5:b4:3b:5f:aa:dc:d5:
                    75:d0:76:14:79:b2:6a:25:cb:5f:44:47:50:a6:68:
                    55:b3:26:16:51:75:72:b5:4a:5a:2a:bc:5b:5b:9f:
                    d5:e1:a2:5c:a8:0d:98:cb:29:48:2c:84:d9:f0:8f:
                    b3:30:f7:1b:23:cc:d4:27:28:57:7b:c2:7e:e9:50:
                    4e:ef:70:69:3e:5b:48:ea:19:ac:85:e1:c9:4c:37:
                    aa:37:ad:4e:1c:09:d6:ad:f2:1b:50:1a:f0:fa:79:
                    d8:cd:e0:38:1c:c3:c8:9f:77:8b:4c:ee:f4:1a:ae:
                    6c:e1:c0:da:27:71:0a:cf:95:be:b3:e1:bc:5f:fb:
                    c6:f8:8b:5b:ed:23:b0:22:5c:09:84:8f:15:ce:ad:
                    bb:7a:30:9e:f0:f9:a2:8f:0d:2c:ae:07:86:42:f5:
                    40:47:80:15:a7:47:3e:43:17:ac:9f:9e:20:c6:c6:
                    93:1d:a5:9e:7a:b3:ea:0e:19:db:ab:8d:ab:df:f3:
                    06:be:11:b4:f9:0b:30:a7:49:5c:4c:5c:b9:e0:bb:
                    d7:de:da:4b:2b:1e:80:00:49:28:94:39:1d:59:24:
                    5c:61:b7:bd:88:43:b0:46:17:0c:d4:a6:35:fd:c7:
                    86:03:af:44:5a:5d:ff:99:a9:d5:3c:ac:cb:77:f2:
                    ea:b5
                Exponent: 65537 (0x10001)
    Signature Algorithm: sha256WithRSAEncryption
         17:ba:b5:88:eb:3f:98:1d:f8:ba:85:27:de:3f:76:2a:12:c9:
         6d:d2:c5:ec:b1:1c:c0:15:a0:3f:35:d0:3a:d5:01:20:e4:e8:
         3e:73:5a:7c:93:86:f0:b4:61:52:8d:3f:88:bc:96:8a:99:94:
         69:ee:50:37:6b:8a:93:0e:42:13:24:0d:a1:60:a8:e4:08:a4:
         60:5a:3a:22:f5:ba:66:40:37:bd:04:59:df:21:39:8e:80:76:
         2f:15:a5:65:b2:f0:d8:b3:ba:c7:fc:8c:45:d9:89:d3:db:18:
         1a:34:89:47:9e:21:c2:e7:bf:7f:95:c7:81:54:6f:06:b8:d3:
         ba:f8:38:0b:2b:3c:c2:1a:e7:8f:36:12:a2:b8:47:a5:31:9b:
         05:c3:45:11:f2:66:93:85:8c:31:01:42:1a:5c:b9:fd:ce:af:
         b4:53:bd:19:50:68:0f:2c:cb:f2:23:3c:20:94:1d:6a:38:de:
         45:fc:e3:85:a1:6a:72:75:a3:f8:20:ca:22:1a:42:ad:84:a5:
         24:7b:5c:2f:57:1e:c9:5e:91:e9:f2:9e:18:0b:6d:9f:1a:bc:
         6e:c8:75:91:c6:2a:cc:04:99:85:e6:fb:ad:f1:79:fa:1b:4f:
         1b:44:6d:cf:52:07:42:6d:6f:11:58:ed:37:1c:2c:35:bb:2c:
         49:78:63:ff
-----BEGIN CERTIFICATE-----
MIIDizCCAnMCCQD/33jEagtydzANBgkqhkiG9w0BAQsFADCBgzELMAkGA1UEBhMC
QVIxFTATBgNVBAgMDEJ1ZW5vcyBBeXJlczEVMBMGA1UEBwwMQnVlbm9zIEF5cmVz
MQ8wDQYDVQQKDAZaRlN0b3IxEzARBgNVBAMMCnpmc3Rvci5vcmcxIDAeBgkqhkiG
9w0BCQEWEXpmc3RvckB6ZnN0b3Iub3JnMB4XDTE2MTEyODA4MjAxOVoXDTI2MTEy
NjA4MjAxOVowgYoxCzAJBgNVBAYTAkFSMRUwEwYDVQQIDAxCdWVub3MgQXlyZXMx
FTATBgNVBAcMDEJ1ZW5vcyBBeXJlczEPMA0GA1UECgwGWkZTdG9yMRowGAYDVQQD
DBF1cGRhdGUuemZzdG9yLm9yZzEgMB4GCSqGSIb3DQEJARYRemZzdG9yQHpmc3Rv
ci5vcmcwggEiMA0GCSqGSIb3DQEBAQUAA4IBDwAwggEKAoIBAQDfqMkj9SAA1bQ7
X6rc1XXQdhR5smoly19ER1CmaFWzJhZRdXK1SloqvFtbn9XholyoDZjLKUgshNnw
j7Mw9xsjzNQnKFd7wn7pUE7vcGk+W0jqGayF4clMN6o3rU4cCdat8htQGvD6edjN
4Dgcw8ifd4tM7vQarmzhwNoncQrPlb6z4bxf+8b4i1vtI7AiXAmEjxXOrbt6MJ7w
+aKPDSyuB4ZC9UBHgBWnRz5DF6yfniDGxpMdpZ56s+oOGdurjavf8wa+EbT5CzCn
SVxMXLngu9fe2ksrHoAASSiUOR1ZJFxht72IQ7BGFwzUpjX9x4YDr0RaXf+ZqdU8
rMt38uq1AgMBAAEwDQYJKoZIhvcNAQELBQADggEBABe6tYjrP5gd+LqFJ94/dioS
yW3SxeyxHMAVoD810DrVASDk6D5zWnyThvC0YVKNP4i8loqZlGnuUDdripMOQhMk
DaFgqOQIpGBaOiL1umZAN70EWd8hOY6Adi8VpWWy8Nizusf8jEXZidPbGBo0iUee
IcLnv3+Vx4FUbwa407r4OAsrPMIa5482EqK4R6UxmwXDRRHyZpOFjDEBQhpcuf3O
r7RTvRlQaA8sy/IjPCCUHWo43kX844WhanJ1o/ggyiIaQq2EpSR7XC9XHslekeny
nhgLbZ8avG7IdZHGKswEmYXm+63xefobTxtEbc9SB0JtbxFY7TccLDW7LEl4Y/8=
-----END CERTIFICATE-----
