Certificate:
    Data:
        Version: 1 (0x0)
        Serial Number:
            ff:df:78:c4:6a:0b:72:78
    Signature Algorithm: sha256WithRSAEncryption
        Issuer: C=AR, ST=Buenos Ayres, L=Buenos Ayres, O=ZFStor, CN=zfstor.org/emailAddress=zfstor@zfstor.org
        Validity
            Not Before: Nov 28 08:22:17 2016 GMT
            Not After : Nov 26 08:22:17 2026 GMT
        Subject: C=AR, ST=Buenos Ayres, O=ZFStor, CN=update.zfstor.org/emailAddress=zfstor@zfstor.org
        Subject Public Key Info:
            Public Key Algorithm: rsaEncryption
                Public-Key: (2048 bit)
                Modulus:
                    00:a3:ee:56:39:49:23:90:42:29:c0:6c:cd:d6:cd:
                    08:c6:43:8d:23:5b:10:79:e4:c6:e4:10:99:5d:20:
                    62:a4:ef:2a:3e:60:83:9c:ce:d2:a5:1b:8b:fe:92:
                    8a:d6:4a:48:7b:a7:e1:dc:f2:1d:72:06:41:67:40:
                    49:65:7a:ca:5e:c0:57:e1:b8:1b:9e:8d:ab:a6:2e:
                    65:67:26:91:0c:e5:83:34:3c:ef:d2:ab:41:b2:be:
                    76:c2:c4:94:22:e7:2e:72:24:dd:90:62:f6:93:26:
                    9d:ec:da:d3:7d:7f:ec:de:6e:13:09:d2:a5:b9:0e:
                    12:a2:66:68:10:ea:4d:21:cc:2e:be:c8:c8:f5:4d:
                    71:99:75:ee:b2:c0:a4:69:b7:f0:20:75:81:cb:aa:
                    0d:4a:d9:c1:58:85:99:c0:28:60:69:54:31:6b:35:
                    28:fd:32:3c:42:f6:39:4d:c4:fd:8b:1d:7a:11:4a:
                    2c:f1:50:fb:8c:a1:42:c4:a2:37:30:58:cb:4f:e1:
                    d5:01:df:12:d0:b6:6c:d4:b4:58:52:a5:8f:34:89:
                    da:44:58:4b:b1:6f:f9:cf:42:15:ff:fb:df:c5:89:
                    10:61:0c:cd:e7:18:43:48:df:ee:2d:36:89:de:ab:
                    ad:5c:d3:6e:4a:f5:46:c1:75:64:0b:78:64:2c:cc:
                    11:0b
                Exponent: 65537 (0x10001)
    Signature Algorithm: sha256WithRSAEncryption
         a1:5c:eb:3a:39:ec:bb:20:3c:1b:3a:45:1a:86:bd:27:f8:58:
         4f:05:be:ca:38:4e:6b:79:a9:b3:3f:9d:ff:67:18:89:9e:4a:
         53:bb:d4:d7:84:02:6a:bf:e5:f2:80:6f:2c:c3:1a:77:d9:f7:
         ed:cb:28:d9:fe:6f:57:d7:10:a1:e9:31:dd:69:c4:40:d4:51:
         72:ba:0f:a9:36:0f:73:49:6c:71:9a:4e:03:66:89:6c:aa:51:
         ff:5e:81:77:9f:56:60:91:a5:cd:45:57:fa:6c:86:91:f3:28:
         29:b9:b7:0a:66:42:3b:60:98:fb:91:53:c0:cb:1a:71:01:10:
         0d:24:8e:28:b4:31:32:35:8d:60:52:3d:66:63:b7:70:b2:15:
         20:ab:9a:4a:9b:c3:ff:76:0a:23:2f:96:40:9d:1e:4a:18:73:
         a8:a9:90:76:b9:52:de:04:7a:6e:85:00:4b:e5:5e:ae:39:76:
         c0:d7:e6:7a:48:1c:27:06:5e:31:2e:2d:27:3b:2d:d3:7e:5a:
         be:11:2d:68:55:39:80:30:f4:5c:c3:94:2f:cf:ae:67:89:5c:
         93:c0:a7:1e:7e:4d:59:32:bf:69:f0:48:17:e9:17:0a:6c:51:
         d0:10:5c:b7:cb:9d:d9:17:97:0a:5f:f4:64:5f:98:48:99:73:
         43:67:c4:25
-----BEGIN CERTIFICATE-----
MIIDczCCAlsCCQD/33jEagtyeDANBgkqhkiG9w0BAQsFADCBgzELMAkGA1UEBhMC
QVIxFTATBgNVBAgMDEJ1ZW5vcyBBeXJlczEVMBMGA1UEBwwMQnVlbm9zIEF5cmVz
MQ8wDQYDVQQKDAZaRlN0b3IxEzARBgNVBAMMCnpmc3Rvci5vcmcxIDAeBgkqhkiG
9w0BCQEWEXpmc3RvckB6ZnN0b3Iub3JnMB4XDTE2MTEyODA4MjIxN1oXDTI2MTEy
NjA4MjIxN1owczELMAkGA1UEBhMCQVIxFTATBgNVBAgMDEJ1ZW5vcyBBeXJlczEP
MA0GA1UECgwGWkZTdG9yMRowGAYDVQQDDBF1cGRhdGUuemZzdG9yLm9yZzEgMB4G
CSqGSIb3DQEJARYRemZzdG9yQHpmc3Rvci5vcmcwggEiMA0GCSqGSIb3DQEBAQUA
A4IBDwAwggEKAoIBAQCj7lY5SSOQQinAbM3WzQjGQ40jWxB55MbkEJldIGKk7yo+
YIOcztKlG4v+korWSkh7p+Hc8h1yBkFnQEllespewFfhuBuejaumLmVnJpEM5YM0
PO/Sq0GyvnbCxJQi5y5yJN2QYvaTJp3s2tN9f+zebhMJ0qW5DhKiZmgQ6k0hzC6+
yMj1TXGZde6ywKRpt/AgdYHLqg1K2cFYhZnAKGBpVDFrNSj9MjxC9jlNxP2LHXoR
SizxUPuMoULEojcwWMtP4dUB3xLQtmzUtFhSpY80idpEWEuxb/nPQhX/+9/FiRBh
DM3nGENI3+4tNoneq61c025K9UbBdWQLeGQszBELAgMBAAEwDQYJKoZIhvcNAQEL
BQADggEBAKFc6zo57LsgPBs6RRqGvSf4WE8Fvso4Tmt5qbM/nf9nGImeSlO71NeE
Amq/5fKAbyzDGnfZ9+3LKNn+b1fXEKHpMd1pxEDUUXK6D6k2D3NJbHGaTgNmiWyq
Uf9egXefVmCRpc1FV/pshpHzKCm5twpmQjtgmPuRU8DLGnEBEA0kjii0MTI1jWBS
PWZjt3CyFSCrmkqbw/92CiMvlkCdHkoYc6ipkHa5Ut4Eem6FAEvlXq45dsDX5npI
HCcGXjEuLSc7LdN+Wr4RLWhVOYAw9FzDlC/PrmeJXJPApx5+TVkyv2nwSBfpFwps
UdAQXLfLndkXlwpf9GRfmEiZc0NnxCU=
-----END CERTIFICATE-----
