Certificate:
    Data:
        Version: 1 (0x0)
        Serial Number:
            ff:df:78:c4:6a:0b:72:76
    Signature Algorithm: sha256WithRSAEncryption
        Issuer: C=AR, ST=Buenos Ayres, L=Buenos Ayres, O=ZFStor, CN=zfstor.org/emailAddress=zfstor@zfstor.org
        Validity
            Not Before: Nov 25 08:49:30 2016 GMT
            Not After : Nov 23 08:49:30 2026 GMT
        Subject: C=AR, ST=Buenos Ayres, L=Buenos Ayres, O=ZFStor, CN=update.zfstor.org/emailAddress=zfstor@zfstor.org
        Subject Public Key Info:
            Public Key Algorithm: rsaEncryption
                Public-Key: (2048 bit)
                Modulus:
                    00:ad:af:16:cc:d6:61:20:c6:a0:58:07:77:21:42:
                    e4:59:06:11:fd:34:e6:26:26:3d:9a:9d:c0:69:be:
                    60:4d:09:94:a2:a0:6a:3b:85:ea:16:57:ea:3c:fc:
                    22:86:c2:d7:2c:13:f2:f5:7a:58:28:fa:01:d9:ee:
                    89:71:63:09:5c:fe:36:e0:25:3f:34:e9:b2:1e:59:
                    9a:32:84:82:e5:6a:bf:77:7f:fe:f7:b8:b5:bd:da:
                    0d:d2:da:79:6b:08:c5:01:b7:35:b3:3a:16:af:1f:
                    5f:e7:1d:fc:70:b1:b8:df:64:e7:23:92:2a:4d:7b:
                    11:22:b7:8e:2e:af:97:75:f8:09:3f:3b:8e:44:9c:
                    7b:98:02:38:d7:e8:dd:aa:8f:57:d0:68:09:1d:a8:
                    c0:aa:5e:42:23:3d:cf:15:d6:24:9e:91:6c:0f:da:
                    5f:e7:38:5c:29:97:92:12:06:0e:d6:b6:e2:30:d1:
                    f7:a8:4d:e3:64:cb:4e:3d:71:20:cf:66:d2:6a:26:
                    f4:0d:f3:d2:82:8b:1e:0a:ba:aa:ee:da:6f:b9:6a:
                    0e:04:98:0c:12:1d:5e:7f:83:61:de:14:11:21:5c:
                    72:74:b6:c1:8a:af:a6:3a:01:23:7e:6e:5b:0b:30:
                    d1:4a:48:2e:f8:be:63:08:ee:2f:94:d8:16:7d:ac:
                    f2:c1
                Exponent: 65537 (0x10001)
    Signature Algorithm: sha256WithRSAEncryption
         69:93:ff:84:7b:ed:fc:11:ab:ae:91:ad:ca:8d:34:15:40:35:
         c0:af:aa:a3:1f:f8:14:7f:59:61:75:14:5e:e8:ff:58:21:c3:
         ea:46:e4:67:0d:81:75:39:7d:a0:a3:e3:d2:75:f2:29:95:a5:
         85:f1:87:0f:fb:63:8b:df:36:38:bf:b1:29:e4:b1:76:0a:d5:
         a4:c1:b4:b2:02:b7:90:df:0b:12:f8:02:a8:7c:a0:d9:68:8f:
         1d:b4:cf:4c:53:b8:0a:e7:1a:31:e6:f0:73:35:ea:d8:dc:56:
         f7:3a:d0:85:61:8d:c8:b0:39:60:80:c4:d4:93:22:d1:0f:e1:
         c2:09:19:3c:90:1c:9c:b2:ac:38:20:ef:39:ab:dc:42:1b:2d:
         e4:5d:50:dd:12:d6:86:46:3b:26:f5:46:fb:3b:eb:5b:55:76:
         72:13:f1:5c:27:09:66:05:b1:f8:2b:7b:74:a5:41:fd:69:07:
         e3:48:9e:3c:81:22:1b:3c:6d:7f:df:cc:25:1b:5d:8e:81:10:
         4c:50:b3:e8:01:2f:c3:ad:90:7c:2f:6d:e6:69:76:fa:d6:17:
         ab:04:59:da:5a:66:1b:f4:14:67:3a:c2:3a:ae:c3:de:79:69:
         f7:2b:bf:20:ea:be:dc:ad:72:8f:97:0a:b7:7c:e9:2e:ce:5b:
         24:23:54:c9
-----BEGIN CERTIFICATE-----
MIIDizCCAnMCCQD/33jEagtydjANBgkqhkiG9w0BAQsFADCBgzELMAkGA1UEBhMC
QVIxFTATBgNVBAgMDEJ1ZW5vcyBBeXJlczEVMBMGA1UEBwwMQnVlbm9zIEF5cmVz
MQ8wDQYDVQQKDAZaRlN0b3IxEzARBgNVBAMMCnpmc3Rvci5vcmcxIDAeBgkqhkiG
9w0BCQEWEXpmc3RvckB6ZnN0b3Iub3JnMB4XDTE2MTEyNTA4NDkzMFoXDTI2MTEy
MzA4NDkzMFowgYoxCzAJBgNVBAYTAkFSMRUwEwYDVQQIDAxCdWVub3MgQXlyZXMx
FTATBgNVBAcMDEJ1ZW5vcyBBeXJlczEPMA0GA1UECgwGWkZTdG9yMRowGAYDVQQD
DBF1cGRhdGUuemZzdG9yLm9yZzEgMB4GCSqGSIb3DQEJARYRemZzdG9yQHpmc3Rv
ci5vcmcwggEiMA0GCSqGSIb3DQEBAQUAA4IBDwAwggEKAoIBAQCtrxbM1mEgxqBY
B3chQuRZBhH9NOYmJj2ancBpvmBNCZSioGo7heoWV+o8/CKGwtcsE/L1elgo+gHZ
7olxYwlc/jbgJT806bIeWZoyhILlar93f/73uLW92g3S2nlrCMUBtzWzOhavH1/n
HfxwsbjfZOcjkipNexEit44ur5d1+Ak/O45EnHuYAjjX6N2qj1fQaAkdqMCqXkIj
Pc8V1iSekWwP2l/nOFwpl5ISBg7WtuIw0feoTeNky049cSDPZtJqJvQN89KCix4K
uqru2m+5ag4EmAwSHV5/g2HeFBEhXHJ0tsGKr6Y6ASN+blsLMNFKSC74vmMI7i+U
2BZ9rPLBAgMBAAEwDQYJKoZIhvcNAQELBQADggEBAGmT/4R77fwRq66RrcqNNBVA
NcCvqqMf+BR/WWF1FF7o/1ghw+pG5GcNgXU5faCj49J18imVpYXxhw/7Y4vfNji/
sSnksXYK1aTBtLICt5DfCxL4Aqh8oNlojx20z0xTuArnGjHm8HM16tjcVvc60IVh
jciwOWCAxNSTItEP4cIJGTyQHJyyrDgg7zmr3EIbLeRdUN0S1oZGOyb1Rvs761tV
dnIT8VwnCWYFsfgre3SlQf1pB+NInjyBIhs8bX/fzCUbXY6BEExQs+gBL8OtkHwv
beZpdvrWF6sEWdpaZhv0FGc6wjquw955afcrvyDqvtytco+XCrd86S7OWyQjVMk=
-----END CERTIFICATE-----
