Certificate:
    Data:
        Version: 1 (0x0)
        Serial Number:
            ff:df:78:c4:6a:0b:72:79
    Signature Algorithm: sha256WithRSAEncryption
        Issuer: C=AR, ST=Buenos Ayres, L=Buenos Ayres, O=ZFStor, CN=zfstor.org/emailAddress=zfstor@zfstor.org
        Validity
            Not Before: Nov 28 08:27:56 2016 GMT
            Not After : Nov 26 08:27:56 2026 GMT
        Subject: C=AR, ST=Buenos Ayres, O=ZFStor, CN=update.zfstor.org/emailAddress=zfstor@zfstor.org
        Subject Public Key Info:
            Public Key Algorithm: rsaEncryption
                Public-Key: (2048 bit)
                Modulus:
                    00:a4:28:af:8a:e3:11:28:58:81:d5:79:d8:ba:7b:
                    d0:60:4c:14:d9:71:9f:57:eb:23:7c:89:7d:fe:bc:
                    1a:00:f5:ee:7c:08:de:d3:bf:9f:f6:ca:a6:39:20:
                    c9:85:13:76:65:86:33:a5:77:6a:41:8a:2d:f3:56:
                    80:26:43:e9:93:0d:bf:b8:2a:88:60:f3:60:54:07:
                    13:1b:d0:db:01:bd:80:14:d2:2f:3e:79:4e:7e:c7:
                    88:cb:85:91:5c:fa:88:6d:4b:d5:6b:8d:4e:de:35:
                    20:e8:2e:92:dd:db:8b:e8:87:2f:b9:cd:f8:81:9a:
                    fd:9c:05:1e:dc:9d:a5:88:9a:ee:46:27:63:0b:3b:
                    e7:69:ad:98:c9:c1:cb:0f:4a:ee:05:04:67:64:c1:
                    2f:a5:d0:7f:0a:0b:e8:68:a4:c1:86:1d:fa:bd:db:
                    c0:d7:cc:f1:8f:a3:5e:89:b8:6e:6e:cb:f5:af:68:
                    14:b0:75:e7:f0:7a:bf:e6:5e:59:8b:b9:f8:d1:34:
                    9d:33:a3:5e:10:ab:47:89:7e:13:f5:ee:1e:13:07:
                    f0:7c:97:26:17:47:ce:a4:63:f7:04:a8:50:25:97:
                    bf:9f:07:6d:89:8a:64:c5:43:10:40:8e:30:f2:95:
                    f2:4e:95:4e:9c:b6:25:38:bd:05:d8:71:32:b3:20:
                    c1:77
                Exponent: 65537 (0x10001)
    Signature Algorithm: sha256WithRSAEncryption
         70:05:fb:62:ee:83:ad:cc:8f:fc:a6:a3:ef:f3:65:40:5b:2a:
         62:05:b9:da:e1:0e:a5:ab:94:84:65:1b:6b:ee:62:25:85:ec:
         21:5c:38:55:ee:3a:9f:bc:c4:63:1b:05:67:6d:1b:b7:c1:03:
         07:6b:9d:46:b0:bb:54:37:ac:6f:b1:18:1e:cc:be:b0:55:0c:
         fb:8c:c5:4f:7d:62:60:35:1c:b5:61:78:a7:58:1d:8e:32:17:
         6a:84:de:ff:23:3d:0a:a3:b2:1b:5a:64:41:5d:88:26:ac:a9:
         ea:90:26:3e:7d:52:6d:7c:0c:84:38:66:b5:fc:69:c0:54:89:
         4c:f7:2d:e6:02:d3:ab:32:b0:dd:45:0e:db:21:29:e9:3c:98:
         c9:4a:35:58:8b:a2:4b:cc:2e:57:1b:64:7c:d6:90:e4:0e:00:
         6d:81:99:1d:24:9b:eb:ed:a6:c9:97:15:26:8d:62:ef:31:17:
         76:8f:2d:bf:7c:b1:4e:03:43:90:81:23:a4:99:0c:1c:7a:24:
         f1:be:b9:7a:38:c7:d2:69:56:08:e4:bd:bf:c6:2c:97:2a:b8:
         1f:99:36:df:2c:cc:4f:44:44:b1:df:5a:2d:53:d2:fe:46:36:
         f0:ca:e6:00:03:a1:41:85:3f:fa:00:a2:64:c7:37:b8:a9:39:
         1a:44:be:79
-----BEGIN CERTIFICATE-----
MIIDczCCAlsCCQD/33jEagtyeTANBgkqhkiG9w0BAQsFADCBgzELMAkGA1UEBhMC
QVIxFTATBgNVBAgMDEJ1ZW5vcyBBeXJlczEVMBMGA1UEBwwMQnVlbm9zIEF5cmVz
MQ8wDQYDVQQKDAZaRlN0b3IxEzARBgNVBAMMCnpmc3Rvci5vcmcxIDAeBgkqhkiG
9w0BCQEWEXpmc3RvckB6ZnN0b3Iub3JnMB4XDTE2MTEyODA4Mjc1NloXDTI2MTEy
NjA4Mjc1NlowczELMAkGA1UEBhMCQVIxFTATBgNVBAgMDEJ1ZW5vcyBBeXJlczEP
MA0GA1UECgwGWkZTdG9yMRowGAYDVQQDDBF1cGRhdGUuemZzdG9yLm9yZzEgMB4G
CSqGSIb3DQEJARYRemZzdG9yQHpmc3Rvci5vcmcwggEiMA0GCSqGSIb3DQEBAQUA
A4IBDwAwggEKAoIBAQCkKK+K4xEoWIHVedi6e9BgTBTZcZ9X6yN8iX3+vBoA9e58
CN7Tv5/2yqY5IMmFE3ZlhjOld2pBii3zVoAmQ+mTDb+4Kohg82BUBxMb0NsBvYAU
0i8+eU5+x4jLhZFc+ohtS9VrjU7eNSDoLpLd24vohy+5zfiBmv2cBR7cnaWImu5G
J2MLO+dprZjJwcsPSu4FBGdkwS+l0H8KC+hopMGGHfq928DXzPGPo16JuG5uy/Wv
aBSwdefwer/mXlmLufjRNJ0zo14Qq0eJfhP17h4TB/B8lyYXR86kY/cEqFAll7+f
B22JimTFQxBAjjDylfJOlU6ctiU4vQXYcTKzIMF3AgMBAAEwDQYJKoZIhvcNAQEL
BQADggEBAHAF+2Lug63Mj/ymo+/zZUBbKmIFudrhDqWrlIRlG2vuYiWF7CFcOFXu
Op+8xGMbBWdtG7fBAwdrnUawu1Q3rG+xGB7MvrBVDPuMxU99YmA1HLVheKdYHY4y
F2qE3v8jPQqjshtaZEFdiCasqeqQJj59Um18DIQ4ZrX8acBUiUz3LeYC06sysN1F
DtshKek8mMlKNViLokvMLlcbZHzWkOQOAG2BmR0km+vtpsmXFSaNYu8xF3aPLb98
sU4DQ5CBI6SZDBx6JPG+uXo4x9JpVgjkvb/GLJcquB+ZNt8szE9ERLHfWi1T0v5G
NvDK5gADoUGFP/oAomTHN7ipORpEvnk=
-----END CERTIFICATE-----
